; Function Attrs: mustprogress uwtable
define void @_ZNK10open_spiel16nine_mens_morris18NineMensMorrisGame14ActionToStringB5cxx11Eil(ptr dead_on_unwind noalias writable sret(%"class.std::__cxx11::basic_string") align 8 %0, ptr nocapture nonnull readnone align 8 %1, i32 %2, i64 noundef %3) unnamed_addr #3 align 2 {
  %5 = alloca %"class.absl::debian2::AlphaNum", align 8
  %6 = alloca %"class.absl::debian2::AlphaNum", align 8
  %7 = alloca %"class.absl::debian2::AlphaNum", align 8
  %8 = alloca %"class.absl::debian2::AlphaNum", align 8
  %9 = alloca %"class.absl::debian2::AlphaNum", align 8
  %10 = alloca %"class.absl::debian2::AlphaNum", align 8
  %11 = icmp slt i64 %3, 24
  br i1 %11, label %_ZN4absl7debian28AlphaNumC2EPKc.exit, label %_ZN4absl7debian28AlphaNumC2EPKc.exit3

_ZN4absl7debian28AlphaNumC2EPKc.exit:             ; preds = %4
  store ptr @.str.35, ptr %5, align 8
  %12 = getelementptr inbounds nuw i8, ptr %5, i64 8
  store i64 6, ptr %12, align 8
  %13 = getelementptr inbounds nuw i8, ptr %6, i64 16
  %14 = call noundef ptr @_ZN4absl7debian216numbers_internal15FastIntToBufferElPc(i64 noundef %3, ptr noundef nonnull %13)
  %15 = ptrtoint ptr %14 to i64
  %16 = ptrtoint ptr %13 to i64
  %17 = sub i64 %15, %16
  store ptr %13, ptr %6, align 8
  %18 = icmp sgt i64 %17, -1
  br i1 %18, label %_ZN4absl7debian28AlphaNumC2El.exit, label %19

19:                                               ; preds = %_ZN4absl7debian28AlphaNumC2EPKc.exit
  call void @llvm.trap()
  unreachable

_ZN4absl7debian28AlphaNumC2El.exit:               ; preds = %_ZN4absl7debian28AlphaNumC2EPKc.exit
  %20 = getelementptr inbounds nuw i8, ptr %6, i64 8
  store i64 %17, ptr %20, align 8
  call void @_ZN4absl7debian26StrCatB5cxx11ERKNS0_8AlphaNumES3_(ptr dead_on_unwind writable sret(%"class.std::__cxx11::basic_string") align 8 %0, ptr noundef nonnull align 8 dereferenceable(48) %5, ptr noundef nonnull align 8 dereferenceable(48) %6)
  br label %44

_ZN4absl7debian28AlphaNumC2EPKc.exit3:            ; preds = %4
  %21 = add nsw i64 %3, -24
  store ptr @.str.36, ptr %7, align 8
  %22 = udiv i64 %21, 24
  %23 = urem i64 %21, 24
  %24 = trunc i64 %22 to i32
  %25 = getelementptr inbounds nuw i8, ptr %7, i64 8
  store i64 5, ptr %25, align 8
  %26 = getelementptr inbounds nuw i8, ptr %8, i64 16
  %27 = call noundef ptr @_ZN4absl7debian216numbers_internal15FastIntToBufferEiPc(i32 noundef %24, ptr noundef nonnull %26)
  %28 = ptrtoint ptr %27 to i64
  %29 = ptrtoint ptr %26 to i64
  %30 = sub i64 %28, %29
  store ptr %26, ptr %8, align 8
  %31 = icmp sgt i64 %30, -1
  br i1 %31, label %_ZN4absl7debian28AlphaNumC2Ei.exit, label %32

32:                                               ; preds = %_ZN4absl7debian28AlphaNumC2EPKc.exit3
  call void @llvm.trap()
  unreachable

_ZN4absl7debian28AlphaNumC2Ei.exit:               ; preds = %_ZN4absl7debian28AlphaNumC2EPKc.exit3
  %33 = trunc nuw nsw i64 %23 to i32
  %34 = getelementptr inbounds nuw i8, ptr %8, i64 8
  store i64 %30, ptr %34, align 8
  store ptr @.str.37, ptr %9, align 8
  %35 = getelementptr inbounds nuw i8, ptr %9, i64 8
  store i64 4, ptr %35, align 8
  %36 = getelementptr inbounds nuw i8, ptr %10, i64 16
  %37 = call noundef ptr @_ZN4absl7debian216numbers_internal15FastIntToBufferEiPc(i32 noundef %33, ptr noundef nonnull %36)
  %38 = ptrtoint ptr %37 to i64
  %39 = ptrtoint ptr %36 to i64
  %40 = sub i64 %38, %39
  store ptr %36, ptr %10, align 8
  %41 = icmp sgt i64 %40, -1
  br i1 %41, label %_ZN4absl7debian28AlphaNumC2Ei.exit5, label %42

42:                                               ; preds = %_ZN4absl7debian28AlphaNumC2Ei.exit
  call void @llvm.trap()
  unreachable

_ZN4absl7debian28AlphaNumC2Ei.exit5:              ; preds = %_ZN4absl7debian28AlphaNumC2Ei.exit
  %43 = getelementptr inbounds nuw i8, ptr %10, i64 8
  store i64 %40, ptr %43, align 8
  call void @_ZN4absl7debian26StrCatB5cxx11ERKNS0_8AlphaNumES3_S3_S3_(ptr dead_on_unwind writable sret(%"class.std::__cxx11::basic_string") align 8 %0, ptr noundef nonnull align 8 dereferenceable(48) %7, ptr noundef nonnull align 8 dereferenceable(48) %8, ptr noundef nonnull align 8 dereferenceable(48) %9, ptr noundef nonnull align 8 dereferenceable(48) %10)
  br label %44

44:                                               ; preds = %_ZN4absl7debian28AlphaNumC2Ei.exit5, %_ZN4absl7debian28AlphaNumC2El.exit
  ret void
}